target datalayout = "e-m:e-p270:32:32-p271:32:32-p272:64:64-i64:64-i128:128-f80:128-n8:16:32:64-S128"
target triple = "x86_64-pc-linux-gnu"

%struct.ForEachState = type { ptr, i32 }
%struct.List = type { i32, i32, i32, ptr, [0 x %union.ListCell] }
%union.ListCell = type { ptr }
%struct.RoleSpec = type { i32, i32, ptr, i32 }

@.str.2 = private unnamed_addr constant [9 x i8] c"policy.c\00", align 1
@.str.20 = private unnamed_addr constant [43 x i8] c"ignoring specified roles other than PUBLIC\00", align 1
@.str.21 = private unnamed_addr constant [42 x i8] c"All roles are members of the PUBLIC role.\00", align 1
@__func__.policy_role_list_to_array = private unnamed_addr constant [26 x i8] c"policy_role_list_to_array\00", align 1

; Function Attrs: inlinehint nounwind uwtable
define internal i32 @list_length(ptr noundef %0) #3 {
  %2 = alloca ptr, align 8
  store ptr %0, ptr %2, align 8
  %3 = load ptr, ptr %2, align 8
  %4 = icmp ne ptr %3, null
  br i1 %4, label %5, label %9

5:                                                ; preds = %1
  %6 = load ptr, ptr %2, align 8
  %7 = getelementptr inbounds nuw %struct.List, ptr %6, i32 0, i32 1
  %8 = load i32, ptr %7, align 4
  br label %10

9:                                                ; preds = %1
  br label %10

10:                                               ; preds = %9, %5
  %11 = phi i32 [ %8, %5 ], [ 0, %9 ]
  ret i32 %11
}

; Function Attrs: inlinehint nounwind uwtable
define internal i64 @ObjectIdGetDatum(i32 noundef %0) #3 {
  %2 = alloca i32, align 4
  store i32 %0, ptr %2, align 4
  %3 = load i32, ptr %2, align 4
  %4 = zext i32 %3 to i64
  ret i64 %4
}

; Function Attrs: nounwind uwtable
define internal ptr @policy_role_list_to_array(ptr noundef %0, ptr noundef %1) #0 {
  %3 = alloca ptr, align 8
  %4 = alloca ptr, align 8
  %5 = alloca ptr, align 8
  %6 = alloca ptr, align 8
  %7 = alloca ptr, align 8
  %8 = alloca i32, align 4
  %9 = alloca i32, align 4
  %10 = alloca %struct.ForEachState, align 8
  %11 = alloca ptr, align 8
  store ptr %0, ptr %4, align 8
  store ptr %1, ptr %5, align 8
  call void @llvm.lifetime.start.p0(i64 8, ptr %6) #8
  call void @llvm.lifetime.start.p0(i64 8, ptr %7) #8
  call void @llvm.lifetime.start.p0(i64 4, ptr %8) #8
  store i32 0, ptr %8, align 4
  %12 = load ptr, ptr %4, align 8
  %13 = icmp eq ptr %12, null
  br i1 %13, label %14, label %25

14:                                               ; preds = %2
  %15 = load ptr, ptr %5, align 8
  store i32 1, ptr %15, align 4
  %16 = load ptr, ptr %5, align 8
  %17 = load i32, ptr %16, align 4
  %18 = sext i32 %17 to i64
  %19 = mul i64 %18, 8
  %20 = call ptr @palloc(i64 noundef %19)
  store ptr %20, ptr %6, align 8
  %21 = call i64 @ObjectIdGetDatum(i32 noundef 0)
  %22 = load ptr, ptr %6, align 8
  %23 = getelementptr inbounds i64, ptr %22, i64 0
  store i64 %21, ptr %23, align 8
  %24 = load ptr, ptr %6, align 8
  store ptr %24, ptr %3, align 8
  store i32 1, ptr %9, align 4
  br label %115

25:                                               ; preds = %2
  %26 = load ptr, ptr %4, align 8
  %27 = call i32 @list_length(ptr noundef %26)
  %28 = load ptr, ptr %5, align 8
  store i32 %27, ptr %28, align 4
  %29 = load ptr, ptr %5, align 8
  %30 = load i32, ptr %29, align 4
  %31 = sext i32 %30 to i64
  %32 = mul i64 %31, 8
  %33 = call ptr @palloc(i64 noundef %32)
  store ptr %33, ptr %6, align 8
  call void @llvm.lifetime.start.p0(i64 16, ptr %10) #8
  %34 = getelementptr inbounds nuw %struct.ForEachState, ptr %10, i32 0, i32 0
  %35 = load ptr, ptr %4, align 8
  store ptr %35, ptr %34, align 8
  %36 = getelementptr inbounds nuw %struct.ForEachState, ptr %10, i32 0, i32 1
  store i32 0, ptr %36, align 8
  %37 = getelementptr i8, ptr %10, i64 12
  call void @llvm.memset.p0.i64(ptr align 4 %37, i8 0, i64 4, i1 false)
  br label %38

38:                                               ; preds = %107, %25
  %39 = getelementptr inbounds nuw %struct.ForEachState, ptr %10, i32 0, i32 0
  %40 = load ptr, ptr %39, align 8
  %41 = icmp ne ptr %40, null
  br i1 %41, label %42, label %59

42:                                               ; preds = %38
  %43 = getelementptr inbounds nuw %struct.ForEachState, ptr %10, i32 0, i32 1
  %44 = load i32, ptr %43, align 8
  %45 = getelementptr inbounds nuw %struct.ForEachState, ptr %10, i32 0, i32 0
  %46 = load ptr, ptr %45, align 8
  %47 = getelementptr inbounds nuw %struct.List, ptr %46, i32 0, i32 1
  %48 = load i32, ptr %47, align 4
  %49 = icmp slt i32 %44, %48
  br i1 %49, label %50, label %59

50:                                               ; preds = %42
  %51 = getelementptr inbounds nuw %struct.ForEachState, ptr %10, i32 0, i32 0
  %52 = load ptr, ptr %51, align 8
  %53 = getelementptr inbounds nuw %struct.List, ptr %52, i32 0, i32 3
  %54 = load ptr, ptr %53, align 8
  %55 = getelementptr inbounds nuw %struct.ForEachState, ptr %10, i32 0, i32 1
  %56 = load i32, ptr %55, align 8
  %57 = sext i32 %56 to i64
  %58 = getelementptr inbounds %union.ListCell, ptr %54, i64 %57
  store ptr %58, ptr %7, align 8
  br label %60

59:                                               ; preds = %42, %38
  store ptr null, ptr %7, align 8
  br label %60

60:                                               ; preds = %59, %50
  %61 = phi i32 [ 1, %50 ], [ 0, %59 ]
  %62 = icmp ne i32 %61, 0
  br i1 %62, label %64, label %63

63:                                               ; preds = %60
  store i32 2, ptr %9, align 4
  br label %111

64:                                               ; preds = %60
  call void @llvm.lifetime.start.p0(i64 8, ptr %11) #8
  %65 = load ptr, ptr %7, align 8
  %66 = load ptr, ptr %65, align 8
  store ptr %66, ptr %11, align 8
  %67 = load ptr, ptr %11, align 8
  %68 = getelementptr inbounds nuw %struct.RoleSpec, ptr %67, i32 0, i32 1
  %69 = load i32, ptr %68, align 4
  %70 = icmp eq i32 %69, 4
  br i1 %70, label %71, label %94

71:                                               ; preds = %64
  %72 = load ptr, ptr %5, align 8
  %73 = load i32, ptr %72, align 4
  %74 = icmp ne i32 %73, 1
  br i1 %74, label %75, label %89

75:                                               ; preds = %71
  br label %76

76:                                               ; preds = %75
  br i1 false, label %77, label %79

77:                                               ; preds = %76
  %78 = call zeroext i1 @errstart_cold(i32 noundef 19, ptr noundef null) #9
  br i1 %78, label %81, label %85

79:                                               ; preds = %76
  %80 = call zeroext i1 @errstart(i32 noundef 19, ptr noundef null)
  br i1 %80, label %81, label %85

81:                                               ; preds = %79, %77
  %82 = call i32 @errcode(i32 noundef 50856066)
  %83 = call i32 (ptr, ...) @errmsg(ptr noundef @.str.20)
  %84 = call i32 (ptr, ...) @errhint(ptr noundef @.str.21)
  call void @errfinish(ptr noundef @.str.2, i32 noundef 170, ptr noundef @__func__.policy_role_list_to_array)
  br label %85

85:                                               ; preds = %81, %79, %77
  br label %86

86:                                               ; preds = %85
  br label %87

87:                                               ; preds = %86
  %88 = load ptr, ptr %5, align 8
  store i32 1, ptr %88, align 4
  br label %89

89:                                               ; preds = %87, %71
  %90 = call i64 @ObjectIdGetDatum(i32 noundef 0)
  %91 = load ptr, ptr %6, align 8
  %92 = getelementptr inbounds i64, ptr %91, i64 0
  store i64 %90, ptr %92, align 8
  %93 = load ptr, ptr %6, align 8
  store ptr %93, ptr %3, align 8
  store i32 1, ptr %9, align 4
  br label %104

94:                                               ; preds = %64
  %95 = load ptr, ptr %11, align 8
  %96 = call i32 @get_rolespec_oid(ptr noundef %95, i1 noundef zeroext false)
  %97 = call i64 @ObjectIdGetDatum(i32 noundef %96)
  %98 = load ptr, ptr %6, align 8
  %99 = load i32, ptr %8, align 4
  %100 = add i32 %99, 1
  store i32 %100, ptr %8, align 4
  %101 = sext i32 %99 to i64
  %102 = getelementptr inbounds i64, ptr %98, i64 %101
  store i64 %97, ptr %102, align 8
  br label %103

103:                                              ; preds = %94
  store i32 0, ptr %9, align 4
  br label %104

104:                                              ; preds = %103, %89
  call void @llvm.lifetime.end.p0(i64 8, ptr %11) #8
  %105 = load i32, ptr %9, align 4
  switch i32 %105, label %111 [
    i32 0, label %106
  ]

106:                                              ; preds = %104
  br label %107

107:                                              ; preds = %106
  %108 = getelementptr inbounds nuw %struct.ForEachState, ptr %10, i32 0, i32 1
  %109 = load i32, ptr %108, align 8
  %110 = add i32 %109, 1
  store i32 %110, ptr %108, align 8
  br label %38, !llvm.loop !11

111:                                              ; preds = %104, %63
  call void @llvm.lifetime.end.p0(i64 16, ptr %10) #8
  %112 = load i32, ptr %9, align 4
  switch i32 %112, label %115 [
    i32 2, label %113
  ]

113:                                              ; preds = %111
  %114 = load ptr, ptr %6, align 8
  store ptr %114, ptr %3, align 8
  store i32 1, ptr %9, align 4
  br label %115

115:                                              ; preds = %113, %111, %14
  call void @llvm.lifetime.end.p0(i64 4, ptr %8) #8
  call void @llvm.lifetime.end.p0(i64 8, ptr %7) #8
  call void @llvm.lifetime.end.p0(i64 8, ptr %6) #8
  %116 = load ptr, ptr %3, align 8
  ret ptr %116
}