; Function Attrs: nounwind uwtable
define internal fastcc ptr @policy_role_list_to_array(ptr noundef readonly captures(address_is_null) %0, ptr noundef nonnull captures(none) initializes((0, 4)) %1) unnamed_addr #0 {
  %3 = icmp eq ptr %0, null
  br i1 %3, label %4, label %6

4:                                                ; preds = %2
  store i32 1, ptr %1, align 4
  %5 = tail call ptr @palloc(i64 noundef 8) #8
  br label %.loopexit.sink.split

6:                                                ; preds = %2
  %7 = getelementptr i8, ptr %0, i64 4
  %.val = load i32, ptr %7, align 4
  store i32 %.val, ptr %1, align 4
  %8 = sext i32 %.val to i64
  %9 = shl nsw i64 %8, 3
  %10 = tail call ptr @palloc(i64 noundef %9) #8
  %11 = load i32, ptr %7, align 4
  %.not.not39 = icmp sgt i32 %11, 0
  br i1 %.not.not39, label %.lr.ph, label %.loopexit

.lr.ph:                                           ; preds = %6
  %12 = getelementptr inbounds nuw i8, ptr %0, i64 16
  br label %13

13:                                               ; preds = %.lr.ph, %28
  %indvars.iv = phi i64 [ 0, %.lr.ph ], [ %indvars.iv.next, %28 ]
  %14 = load ptr, ptr %12, align 8
  %15 = getelementptr inbounds nuw %union.ListCell, ptr %14, i64 %indvars.iv
  %16 = load ptr, ptr %15, align 8
  %17 = getelementptr inbounds nuw i8, ptr %16, i64 4
  %18 = load i32, ptr %17, align 4
  %.not33 = icmp eq i32 %18, 4
  br i1 %.not33, label %19, label %28

19:                                               ; preds = %13
  %20 = load i32, ptr %1, align 4
  %.not32 = icmp eq i32 %20, 1
  br i1 %.not32, label %.loopexit.sink.split, label %21

21:                                               ; preds = %19
  %22 = tail call zeroext i1 @errstart(i32 noundef 19, ptr noundef null) #8
  br i1 %22, label %23, label %27

23:                                               ; preds = %21
  %24 = tail call i32 @errcode(i32 noundef 50856066) #8
  %25 = tail call i32 (ptr, ...) @errmsg(ptr noundef nonnull @.str.20) #8
  %26 = tail call i32 (ptr, ...) @errhint(ptr noundef nonnull @.str.21) #8
  tail call void @errfinish(ptr noundef nonnull @.str.2, i32 noundef 170, ptr noundef nonnull @__func__.policy_role_list_to_array) #8
  br label %27

27:                                               ; preds = %23, %21
  store i32 1, ptr %1, align 4
  br label %.loopexit.sink.split

28:                                               ; preds = %13
  %29 = tail call i32 @get_rolespec_oid(ptr noundef nonnull %16, i1 noundef zeroext false) #8
  %30 = zext i32 %29 to i64
  %indvars.iv.next = add nuw nsw i64 %indvars.iv, 1
  %31 = getelementptr inbounds nuw i64, ptr %10, i64 %indvars.iv
  store i64 %30, ptr %31, align 8
  %32 = load i32, ptr %7, align 4
  %33 = sext i32 %32 to i64
  %.not.not = icmp slt i64 %indvars.iv.next, %33
  br i1 %.not.not, label %13, label %.loopexit, !llvm.loop !11

.loopexit.sink.split:                             ; preds = %27, %19, %4
  %.sink = phi ptr [ %5, %4 ], [ %10, %19 ], [ %10, %27 ]
  store i64 0, ptr %.sink, align 8
  br label %.loopexit

.loopexit:                                        ; preds = %28, %.loopexit.sink.split, %6
  %.0 = phi ptr [ %10, %6 ], [ %.sink, %.loopexit.sink.split ], [ %10, %28 ]
  ret ptr %.0
}